target datalayout = "e-m:e-p270:32:32-p271:32:32-p272:64:64-i64:64-i128:128-f80:128-n8:16:32:64-S128"
target triple = "x86_64-pc-linux-gnu"

@.str.84 = private unnamed_addr constant [16 x i8] c"StateAccessType\00", align 1
@StateAccessType_spec = internal global { ptr, i32, i32, i32, [4 x i8], ptr } { ptr @.str.85, i32 16, i32 0, i32 1025, [4 x i8] zeroinitializer, ptr @StateAccessType_Type_slots }, align 8

; Function Attrs: nounwind uwtable
define internal i32 @meth_state_access_exec(ptr noundef %0) #0 {
  %2 = alloca i32, align 4
  %3 = alloca ptr, align 8
  %4 = alloca ptr, align 8
  %5 = alloca ptr, align 8
  %6 = alloca i32, align 4
  store ptr %0, ptr %3, align 8, !tbaa !3
  call void @llvm.lifetime.start.p0(i64 8, ptr %4) #5
  call void @llvm.lifetime.start.p0(i64 8, ptr %5) #5
  %7 = load ptr, ptr %3, align 8, !tbaa !3
  %8 = call ptr @PyModule_GetState(ptr noundef %7)
  store ptr %8, ptr %5, align 8, !tbaa !17
  %9 = load ptr, ptr %5, align 8, !tbaa !17
  %10 = icmp eq ptr %9, null
  br i1 %10, label %11, label %12

11:                                               ; preds = %1
  store i32 -1, ptr %2, align 4
  store i32 1, ptr %6, align 4
  br label %21

12:                                               ; preds = %1
  %13 = load ptr, ptr %3, align 8, !tbaa !3
  %14 = call ptr @PyType_FromModuleAndSpec(ptr noundef %13, ptr noundef @StateAccessType_spec, ptr noundef null)
  store ptr %14, ptr %4, align 8, !tbaa !3
  %15 = load ptr, ptr %3, align 8, !tbaa !3
  %16 = load ptr, ptr %4, align 8, !tbaa !3
  %17 = call i32 @PyModule_Add(ptr noundef %15, ptr noundef @.str.84, ptr noundef %16)
  %18 = icmp ne i32 %17, 0
  br i1 %18, label %19, label %20

19:                                               ; preds = %12
  store i32 -1, ptr %2, align 4
  store i32 1, ptr %6, align 4
  br label %21

20:                                               ; preds = %12
  store i32 0, ptr %2, align 4
  store i32 1, ptr %6, align 4
  br label %21

21:                                               ; preds = %20, %19, %11
  call void @llvm.lifetime.end.p0(i64 8, ptr %5) #5
  call void @llvm.lifetime.end.p0(i64 8, ptr %4) #5
  %22 = load i32, ptr %2, align 4
  ret i32 %22
}