; Function Attrs: nounwind uwtable
define internal range(i32 -1, 1) i32 @meth_state_access_exec(ptr noundef %0) #0 {
  %2 = tail call ptr @PyModule_GetState(ptr noundef %0) #4
  %3 = icmp eq ptr %2, null
  br i1 %3, label %7, label %4

4:                                                ; preds = %1
  %5 = tail call ptr @PyType_FromModuleAndSpec(ptr noundef %0, ptr noundef nonnull @StateAccessType_spec, ptr noundef null) #4
  %6 = tail call i32 @PyModule_Add(ptr noundef %0, ptr noundef nonnull @.str.84, ptr noundef %5) #4
  %.not = icmp ne i32 %6, 0
  %. = sext i1 %.not to i32
  br label %7

7:                                                ; preds = %4, %1
  %.0 = phi i32 [ -1, %1 ], [ %., %4 ]
  ret i32 %.0
}